(lp0
I0
aI0
aI0
aI0
aI0
aI0
aI0
aI0
aI0
aI0
aI0
aI0
aI0
aI0
aI0
aI0
aI0
aI0
aI0
aI0
aI0
aI0
aI0
aI0
aI0
aI0
aI0
aI0
aI0
aI0
aI0
aI0
aI0
aI0
aI0
aI0
aI5
aI1
aI3
aI26
aI1331
aI1072
aI953
aI1419
aI1443
aI1762
aI1906
aI1980
aI2038
aI1933
aI2057
aI2377
aI5243
aI4017
aI3913
aI5184
aI5031
aI7092
aI8153
aI7606
aI7610
aI7782
aI7728
aI9474
aI11422
aI10564
aI9276
aI11365
aI11271
aI13990
aI17495
aI13581
aI11351
aI12295
aI18480
aI9861
a.