(lp0
I2
aI50
aI123
aI193
aI170
aI294
aI266
aI360
aI468
aI591
aI676
aI802
aI782
aI851
aI973
aI907
aI1118
aI1143
aI1118
aI1296
aI1500
aI1888
aI1898
aI1788
aI1641
aI1575
aI1658
aI2079
aI2648
aI2440
aI2146
aI2581
aI2904
aI2610
aI2304
aI2435
aI2618
aI2356
aI2477
aI2505
aI2941
aI4082
aI4648
aI6052
aI7575
aI9396
aI11018
aI13009
aI14440
aI16390
aI18367
aI20464
aI23816
aI28667
aI32524
aI36812
aI41876
aI47269
aI54185
aI62291
aI69571
aI77150
aI85165
aI93022
aI102658
aI113923
aI124069
aI133744
aI144950
aI157361
aI170077
aI187798
aI200679
aI212099
aI224230
aI242031
a.