(lp0
V/erudstam/test-test
p1
aV/ldore/add-test_runner-support-to-the-test-command
p2
aV/ajwilson08/unit_testing_test
p3
aV/stevetest/my-test-repo-steve-test
p4
aV/edenchen/test-test
p5
aV/alexmattingley/test_test
p6
aV/ciscouser1/testing_test_01
p7
aV/teampotterandweb/test-test
p8
aV/mdaidai/test_test
p9
aV/testteam0803/test-test
p10
aV/pmenten/android-testing-test
p11
aV/cirrostratus/equality-testing-in-node.js-unit-tests
p12
aV/shlomif/perl-test-count
p13
aV/psnyder/lootsie-test
p14
aV/gwr/cthon-nfs-tests
p15
aV/makarun/test
p16
aV/shlomif/perl-test-run
p17
aV/ebhanssen/test-trap
p18
aV/shlomif/perl-test-www-mechanize-mojo
p19
aV/ivk_bucket/library-unit-tests
p20
aV/sasatechno/software-testing-companies
p21
aV/zyxit/javascript-test-rig
p22
aV/leow/openautoclassifieds-test
p23
aV/edd/test_o_matic
p24
aV/nmartynenko/angular-test-task
p25
aV/pixelsimple/commons-test
p26
aV/galaktor/test-lint-extensions
p27
aV/threerides/django-browser-testing
p28
aV/terryp/pycon_2009_testing_tutorial
p29
aV/cfelton/myhdl_tests
p30
aV/rush2400/test-project
p31
a.